; Function Attrs: mustprogress nounwind uwtable
define void @_ZN9grpc_core26TlsServerSecurityConnector28ServerPendingVerifierRequestD2Ev(ptr noundef nonnull readonly align 8 captures(none) dereferenceable(120) %0) unnamed_addr #8 align 2 personality ptr @__gxx_personality_v0 {
  %2 = getelementptr inbounds nuw i8, ptr %0, i64 8
  invoke fastcc void @_ZN9grpc_core12_GLOBAL__N_129PendingVerifierRequestDestroyEP42grpc_tls_custom_verification_check_request(ptr noundef %2)
          to label %3 unwind label %13

3:                                                ; preds = %1
  %4 = load ptr, ptr %0, align 8, !tbaa !258
  %.not.i = icmp eq ptr %4, null
  br i1 %.not.i, label %_ZN9grpc_core13RefCountedPtrINS_26TlsServerSecurityConnectorEED2Ev.exit, label %5

5:                                                ; preds = %3
  %6 = getelementptr inbounds nuw i8, ptr %4, i64 8
  %7 = atomicrmw sub ptr %6, i64 1 acq_rel, align 8
  %8 = icmp eq i64 %7, 1
  br i1 %8, label %9, label %_ZN9grpc_core13RefCountedPtrINS_26TlsServerSecurityConnectorEED2Ev.exit, !prof !25

9:                                                ; preds = %5
  %10 = load ptr, ptr %4, align 8, !tbaa !26
  %11 = getelementptr inbounds nuw i8, ptr %10, i64 8
  %12 = load ptr, ptr %11, align 8
  tail call void %12(ptr noundef nonnull align 8 dereferenceable(32) %4) #28
  br label %_ZN9grpc_core13RefCountedPtrINS_26TlsServerSecurityConnectorEED2Ev.exit

_ZN9grpc_core13RefCountedPtrINS_26TlsServerSecurityConnectorEED2Ev.exit: ; preds = %3, %5, %9
  ret void

13:                                               ; preds = %1
  %14 = landingpad { ptr, i32 }
          catch ptr null
  %15 = extractvalue { ptr, i32 } %14, 0
  tail call void @__clang_call_terminate(ptr %15) #32
  unreachable
}